target datalayout = "e-m:e-p270:32:32-p271:32:32-p272:64:64-i64:64-i128:128-f80:128-n8:16:32:64-S128"
target triple = "x86_64-unknown-linux-gnu"

%struct.VirtIOGPUBase = type { %struct.VirtIODevice, ptr, %struct.virtio_gpu_base_conf, %struct.virtio_gpu_config, ptr, i32, i32, %struct.MemoryRegion, [16 x %struct.virtio_gpu_scanout], i32, [16 x %struct.virtio_gpu_requested_state] }
%struct.VirtIODevice = type { %struct.DeviceState, ptr, i8, i8, i16, i64, i64, i64, i64, ptr, i16, i32, i32, ptr, %struct.MemoryListener, i16, i8, i8, i8, i8, i8, i8, i8, i8, i8, ptr, ptr, i8, i8, ptr, ptr, %union.anon.1, %struct.EventNotifier, i8 }
%struct.DeviceState = type { %struct.Object, ptr, ptr, i8, i8, i64, ptr, i32, i8, ptr, %struct.NamedGPIOListHead, %struct.NamedClockListHead, %struct.BusStateHead, i32, i32, i32, %struct.ResettableState, ptr, %struct.MemReentrancyGuard }
%struct.Object = type { ptr, ptr, ptr, i32, ptr }
%struct.NamedGPIOListHead = type { ptr }
%struct.NamedClockListHead = type { ptr }
%struct.BusStateHead = type { ptr }
%struct.ResettableState = type { i32, i8, i8 }
%struct.MemReentrancyGuard = type { i8 }
%struct.MemoryListener = type { ptr, ptr, ptr, ptr, ptr, ptr, ptr, ptr, ptr, ptr, ptr, ptr, ptr, ptr, ptr, ptr, ptr, i32, ptr, ptr, %union.anon, %union.anon.0 }
%union.anon = type { %struct.QTailQLink }
%struct.QTailQLink = type { ptr, ptr }
%union.anon.0 = type { %struct.QTailQLink }
%union.anon.1 = type { %struct.QTailQLink }
%struct.EventNotifier = type { i32, i32, i8 }
%struct.virtio_gpu_base_conf = type { i32, i32, i32, i32, i64 }
%struct.virtio_gpu_config = type { i32, i32, i32, i32 }
%struct.MemoryRegion = type { %struct.Object, i8, i8, i8, i8, i8, i8, i8, i8, i8, i8, ptr, ptr, ptr, ptr, ptr, ptr, i32, i128, i64, ptr, i64, i8, i8, i8, i8, i8, ptr, i64, i32, %union.anon.2, %union.anon.3, %union.anon.4, ptr, i32, ptr, ptr, i8 }
%union.anon.2 = type { %struct.QTailQLink }
%union.anon.3 = type { %struct.QTailQLink }
%union.anon.4 = type { %struct.QTailQLink }
%struct.virtio_gpu_scanout = type { ptr, ptr, i32, i32, i32, i32, i32, i32, %struct.virtio_gpu_update_cursor, ptr }
%struct.virtio_gpu_update_cursor = type { %struct.virtio_gpu_ctrl_hdr, %struct.virtio_gpu_cursor_pos, i32, i32, i32, i32 }
%struct.virtio_gpu_ctrl_hdr = type { i32, i32, i64, i32, i8, [3 x i8] }
%struct.virtio_gpu_cursor_pos = type { i32, i32, i32, i32 }
%struct.virtio_gpu_requested_state = type { i16, i16, i32, i32, i32, i32, i32 }
%struct.virtio_gpu_resp_display_info = type { %struct.virtio_gpu_ctrl_hdr, [16 x %struct.virtio_gpu_display_one] }
%struct.virtio_gpu_display_one = type { %struct.virtio_gpu_rect, i32, i32 }
%struct.virtio_gpu_rect = type { i32, i32, i32, i32 }

; Function Attrs: nounwind sspstrong uwtable
define internal i32 @cpu_to_le32(i32 noundef %v) #0 {
entry:
  %v.addr = alloca i32, align 4
  store i32 %v, ptr %v.addr, align 4
  %0 = load i32, ptr %v.addr, align 4
  ret i32 %0
}

; Function Attrs: nounwind sspstrong uwtable
define dso_local void @virtio_gpu_base_fill_display_info(ptr noundef %g, ptr noundef %dpy_info) #0 {
entry:
  %g.addr = alloca ptr, align 8
  %dpy_info.addr = alloca ptr, align 8
  %i = alloca i32, align 4
  store ptr %g, ptr %g.addr, align 8
  store ptr %dpy_info, ptr %dpy_info.addr, align 8
  store i32 0, ptr %i, align 4
  br label %for.cond

for.cond:                                         ; preds = %for.inc, %entry
  %0 = load i32, ptr %i, align 4
  %1 = load ptr, ptr %g.addr, align 8
  %conf = getelementptr inbounds %struct.VirtIOGPUBase, ptr %1, i32 0, i32 2
  %max_outputs = getelementptr inbounds %struct.virtio_gpu_base_conf, ptr %conf, i32 0, i32 0
  %2 = load i32, ptr %max_outputs, align 16
  %cmp = icmp ult i32 %0, %2
  br i1 %cmp, label %for.body, label %for.end

for.body:                                         ; preds = %for.cond
  %3 = load ptr, ptr %g.addr, align 8
  %enabled_output_bitmask = getelementptr inbounds %struct.VirtIOGPUBase, ptr %3, i32 0, i32 9
  %4 = load i32, ptr %enabled_output_bitmask, align 16
  %5 = load i32, ptr %i, align 4
  %shl = shl i32 1, %5
  %and = and i32 %4, %shl
  %tobool = icmp ne i32 %and, 0
  br i1 %tobool, label %if.then, label %if.end

if.then:                                          ; preds = %for.body
  %6 = load ptr, ptr %dpy_info.addr, align 8
  %pmodes = getelementptr inbounds %struct.virtio_gpu_resp_display_info, ptr %6, i32 0, i32 1
  %7 = load i32, ptr %i, align 4
  %idxprom = sext i32 %7 to i64
  %arrayidx = getelementptr [16 x %struct.virtio_gpu_display_one], ptr %pmodes, i64 0, i64 %idxprom
  %enabled = getelementptr inbounds %struct.virtio_gpu_display_one, ptr %arrayidx, i32 0, i32 1
  store i32 1, ptr %enabled, align 8
  %8 = load ptr, ptr %g.addr, align 8
  %req_state = getelementptr inbounds %struct.VirtIOGPUBase, ptr %8, i32 0, i32 10
  %9 = load i32, ptr %i, align 4
  %idxprom1 = sext i32 %9 to i64
  %arrayidx2 = getelementptr [16 x %struct.virtio_gpu_requested_state], ptr %req_state, i64 0, i64 %idxprom1
  %width = getelementptr inbounds %struct.virtio_gpu_requested_state, ptr %arrayidx2, i32 0, i32 2
  %10 = load i32, ptr %width, align 4
  %call = call i32 @cpu_to_le32(i32 noundef %10)
  %11 = load ptr, ptr %dpy_info.addr, align 8
  %pmodes3 = getelementptr inbounds %struct.virtio_gpu_resp_display_info, ptr %11, i32 0, i32 1
  %12 = load i32, ptr %i, align 4
  %idxprom4 = sext i32 %12 to i64
  %arrayidx5 = getelementptr [16 x %struct.virtio_gpu_display_one], ptr %pmodes3, i64 0, i64 %idxprom4
  %r = getelementptr inbounds %struct.virtio_gpu_display_one, ptr %arrayidx5, i32 0, i32 0
  %width6 = getelementptr inbounds %struct.virtio_gpu_rect, ptr %r, i32 0, i32 2
  store i32 %call, ptr %width6, align 8
  %13 = load ptr, ptr %g.addr, align 8
  %req_state7 = getelementptr inbounds %struct.VirtIOGPUBase, ptr %13, i32 0, i32 10
  %14 = load i32, ptr %i, align 4
  %idxprom8 = sext i32 %14 to i64
  %arrayidx9 = getelementptr [16 x %struct.virtio_gpu_requested_state], ptr %req_state7, i64 0, i64 %idxprom8
  %height = getelementptr inbounds %struct.virtio_gpu_requested_state, ptr %arrayidx9, i32 0, i32 3
  %15 = load i32, ptr %height, align 4
  %call10 = call i32 @cpu_to_le32(i32 noundef %15)
  %16 = load ptr, ptr %dpy_info.addr, align 8
  %pmodes11 = getelementptr inbounds %struct.virtio_gpu_resp_display_info, ptr %16, i32 0, i32 1
  %17 = load i32, ptr %i, align 4
  %idxprom12 = sext i32 %17 to i64
  %arrayidx13 = getelementptr [16 x %struct.virtio_gpu_display_one], ptr %pmodes11, i64 0, i64 %idxprom12
  %r14 = getelementptr inbounds %struct.virtio_gpu_display_one, ptr %arrayidx13, i32 0, i32 0
  %height15 = getelementptr inbounds %struct.virtio_gpu_rect, ptr %r14, i32 0, i32 3
  store i32 %call10, ptr %height15, align 4
  br label %if.end

if.end:                                           ; preds = %if.then, %for.body
  br label %for.inc

for.inc:                                          ; preds = %if.end
  %18 = load i32, ptr %i, align 4
  %inc = add i32 %18, 1
  store i32 %inc, ptr %i, align 4
  br label %for.cond, !llvm.loop !7

for.end:                                          ; preds = %for.cond
  ret void
}