; Function Attrs: nofree norecurse nosync nounwind sspstrong memory(argmem: readwrite) uwtable
define dso_local void @virtio_gpu_base_fill_display_info(ptr noundef readonly captures(none) %g, ptr noundef writeonly captures(none) %dpy_info) local_unnamed_addr #0 {
entry:
  %conf = getelementptr inbounds nuw i8, ptr %g, i64 528
  %0 = load i32, ptr %conf, align 16
  %cmp13.not = icmp eq i32 %0, 0
  br i1 %cmp13.not, label %for.end, label %for.body.lr.ph

for.body.lr.ph:                                   ; preds = %entry
  %enabled_output_bitmask = getelementptr inbounds nuw i8, ptr %g, i64 2528
  %pmodes = getelementptr inbounds nuw i8, ptr %dpy_info, i64 24
  %req_state = getelementptr inbounds nuw i8, ptr %g, i64 2532
  br label %for.body

for.body:                                         ; preds = %for.body.lr.ph, %for.inc
  %1 = phi i32 [ %0, %for.body.lr.ph ], [ %5, %for.inc ]
  %i.014 = phi i32 [ 0, %for.body.lr.ph ], [ %inc, %for.inc ]
  %2 = load i32, ptr %enabled_output_bitmask, align 16
  %shl = shl nuw i32 1, %i.014
  %and = and i32 %2, %shl
  %tobool.not = icmp eq i32 %and, 0
  br i1 %tobool.not, label %for.inc, label %if.then

if.then:                                          ; preds = %for.body
  %idxprom = sext i32 %i.014 to i64
  %arrayidx = getelementptr [16 x %struct.virtio_gpu_display_one], ptr %pmodes, i64 0, i64 %idxprom
  %enabled = getelementptr inbounds nuw i8, ptr %arrayidx, i64 16
  store i32 1, ptr %enabled, align 8
  %arrayidx2 = getelementptr [16 x %struct.virtio_gpu_requested_state], ptr %req_state, i64 0, i64 %idxprom
  %width = getelementptr inbounds nuw i8, ptr %arrayidx2, i64 4
  %3 = load i32, ptr %width, align 4
  %width6 = getelementptr inbounds nuw i8, ptr %arrayidx, i64 8
  store i32 %3, ptr %width6, align 8
  %height = getelementptr inbounds nuw i8, ptr %arrayidx2, i64 8
  %4 = load i32, ptr %height, align 4
  %height15 = getelementptr inbounds nuw i8, ptr %arrayidx, i64 12
  store i32 %4, ptr %height15, align 4
  %.pre = load i32, ptr %conf, align 16
  br label %for.inc

for.inc:                                          ; preds = %for.body, %if.then
  %5 = phi i32 [ %1, %for.body ], [ %.pre, %if.then ]
  %inc = add nuw i32 %i.014, 1
  %cmp = icmp ult i32 %inc, %5
  br i1 %cmp, label %for.body, label %for.end, !llvm.loop !7

for.end:                                          ; preds = %for.inc, %entry
  ret void
}